target datalayout = "e-m:e-p270:32:32-p271:32:32-p272:64:64-i64:64-i128:128-f80:128-n8:16:32:64-S128"
target triple = "x86_64-pc-linux-gnu"

%struct.DH_PKEY_CTX = type { i32, i32, i32, i32, i32, ptr, i32, [2 x i32], i8, ptr, ptr, ptr, i64, i64 }
%struct.evp_pkey_ctx_st = type { i32, ptr, ptr, ptr, ptr, %union.anon, %struct.anon.4, ptr, ptr, ptr, i32, i32, ptr, ptr, ptr, ptr, ptr, i8, ptr }
%union.anon = type { %struct.anon.0 }
%struct.anon.0 = type { ptr, ptr }
%struct.anon.4 = type { ptr, ptr, i64, i8 }

@.str = private unnamed_addr constant [32 x i8] c"../openssl/crypto/dh/dh_pmeth.c\00", align 1

; Function Attrs: nounwind uwtable
define internal i32 @pkey_dh_ctrl(ptr noundef %0, i32 noundef %1, i32 noundef %2, ptr noundef %3) #0 {
  %5 = alloca i32, align 4
  %6 = alloca ptr, align 8
  %7 = alloca i32, align 4
  %8 = alloca i32, align 4
  %9 = alloca ptr, align 8
  %10 = alloca ptr, align 8
  %11 = alloca i32, align 4
  store ptr %0, ptr %6, align 8, !tbaa !3
  store i32 %1, ptr %7, align 4, !tbaa !45
  store i32 %2, ptr %8, align 4, !tbaa !45
  store ptr %3, ptr %9, align 8, !tbaa !8
  call void @llvm.lifetime.start.p0(i64 8, ptr %10) #6
  %12 = load ptr, ptr %6, align 8, !tbaa !3
  %13 = getelementptr inbounds nuw %struct.evp_pkey_ctx_st, ptr %12, i32 0, i32 16
  %14 = load ptr, ptr %13, align 8, !tbaa !19
  store ptr %14, ptr %10, align 8, !tbaa !8
  %15 = load i32, ptr %7, align 4, !tbaa !45
  switch i32 %15, label %172 [
    i32 4097, label %16
    i32 4100, label %24
    i32 4112, label %34
    i32 4098, label %38
    i32 4101, label %48
    i32 4099, label %59
    i32 4111, label %75
    i32 2, label %88
    i32 4102, label %89
    i32 4103, label %109
    i32 4104, label %113
    i32 4105, label %118
    i32 4106, label %127
    i32 4107, label %133
    i32 4108, label %151
    i32 4109, label %160
    i32 4110, label %167
  ]

16:                                               ; preds = %4
  %17 = load i32, ptr %8, align 4, !tbaa !45
  %18 = icmp slt i32 %17, 256
  br i1 %18, label %19, label %20

19:                                               ; preds = %16
  store i32 -2, ptr %5, align 4
  store i32 1, ptr %11, align 4
  br label %173

20:                                               ; preds = %16
  %21 = load i32, ptr %8, align 4, !tbaa !45
  %22 = load ptr, ptr %10, align 8, !tbaa !8
  %23 = getelementptr inbounds nuw %struct.DH_PKEY_CTX, ptr %22, i32 0, i32 0
  store i32 %21, ptr %23, align 8, !tbaa !9
  store i32 1, ptr %5, align 4
  store i32 1, ptr %11, align 4
  br label %173

24:                                               ; preds = %4
  %25 = load ptr, ptr %10, align 8, !tbaa !8
  %26 = getelementptr inbounds nuw %struct.DH_PKEY_CTX, ptr %25, i32 0, i32 2
  %27 = load i32, ptr %26, align 8, !tbaa !31
  %28 = icmp eq i32 %27, 0
  br i1 %28, label %29, label %30

29:                                               ; preds = %24
  store i32 -2, ptr %5, align 4
  store i32 1, ptr %11, align 4
  br label %173

30:                                               ; preds = %24
  %31 = load i32, ptr %8, align 4, !tbaa !45
  %32 = load ptr, ptr %10, align 8, !tbaa !8
  %33 = getelementptr inbounds nuw %struct.DH_PKEY_CTX, ptr %32, i32 0, i32 3
  store i32 %31, ptr %33, align 4, !tbaa !16
  store i32 1, ptr %5, align 4
  store i32 1, ptr %11, align 4
  br label %173

34:                                               ; preds = %4
  %35 = load i32, ptr %8, align 4, !tbaa !45
  %36 = load ptr, ptr %10, align 8, !tbaa !8
  %37 = getelementptr inbounds nuw %struct.DH_PKEY_CTX, ptr %36, i32 0, i32 4
  store i32 %35, ptr %37, align 8, !tbaa !32
  store i32 1, ptr %5, align 4
  store i32 1, ptr %11, align 4
  br label %173

38:                                               ; preds = %4
  %39 = load ptr, ptr %10, align 8, !tbaa !8
  %40 = getelementptr inbounds nuw %struct.DH_PKEY_CTX, ptr %39, i32 0, i32 2
  %41 = load i32, ptr %40, align 8, !tbaa !31
  %42 = icmp ne i32 %41, 0
  br i1 %42, label %43, label %44

43:                                               ; preds = %38
  store i32 -2, ptr %5, align 4
  store i32 1, ptr %11, align 4
  br label %173

44:                                               ; preds = %38
  %45 = load i32, ptr %8, align 4, !tbaa !45
  %46 = load ptr, ptr %10, align 8, !tbaa !8
  %47 = getelementptr inbounds nuw %struct.DH_PKEY_CTX, ptr %46, i32 0, i32 1
  store i32 %45, ptr %47, align 4, !tbaa !17
  store i32 1, ptr %5, align 4
  store i32 1, ptr %11, align 4
  br label %173

48:                                               ; preds = %4
  %49 = load i32, ptr %8, align 4, !tbaa !45
  %50 = icmp slt i32 %49, 0
  br i1 %50, label %54, label %51

51:                                               ; preds = %48
  %52 = load i32, ptr %8, align 4, !tbaa !45
  %53 = icmp sgt i32 %52, 2
  br i1 %53, label %54, label %55

54:                                               ; preds = %51, %48
  store i32 -2, ptr %5, align 4
  store i32 1, ptr %11, align 4
  br label %173

55:                                               ; preds = %51
  %56 = load i32, ptr %8, align 4, !tbaa !45
  %57 = load ptr, ptr %10, align 8, !tbaa !8
  %58 = getelementptr inbounds nuw %struct.DH_PKEY_CTX, ptr %57, i32 0, i32 2
  store i32 %56, ptr %58, align 8, !tbaa !31
  store i32 1, ptr %5, align 4
  store i32 1, ptr %11, align 4
  br label %173

59:                                               ; preds = %4
  %60 = load i32, ptr %8, align 4, !tbaa !45
  %61 = icmp slt i32 %60, 1
  br i1 %61, label %70, label %62

62:                                               ; preds = %59
  %63 = load i32, ptr %8, align 4, !tbaa !45
  %64 = icmp sgt i32 %63, 3
  br i1 %64, label %70, label %65

65:                                               ; preds = %62
  %66 = load ptr, ptr %10, align 8, !tbaa !8
  %67 = getelementptr inbounds nuw %struct.DH_PKEY_CTX, ptr %66, i32 0, i32 6
  %68 = load i32, ptr %67, align 8, !tbaa !34
  %69 = icmp ne i32 %68, 0
  br i1 %69, label %70, label %71

70:                                               ; preds = %65, %62, %59
  store i32 -2, ptr %5, align 4
  store i32 1, ptr %11, align 4
  br label %173

71:                                               ; preds = %65
  %72 = load i32, ptr %8, align 4, !tbaa !45
  %73 = load ptr, ptr %10, align 8, !tbaa !8
  %74 = getelementptr inbounds nuw %struct.DH_PKEY_CTX, ptr %73, i32 0, i32 6
  store i32 %72, ptr %74, align 8, !tbaa !34
  store i32 1, ptr %5, align 4
  store i32 1, ptr %11, align 4
  br label %173

75:                                               ; preds = %4
  %76 = load i32, ptr %8, align 4, !tbaa !45
  %77 = icmp sle i32 %76, 0
  br i1 %77, label %83, label %78

78:                                               ; preds = %75
  %79 = load ptr, ptr %10, align 8, !tbaa !8
  %80 = getelementptr inbounds nuw %struct.DH_PKEY_CTX, ptr %79, i32 0, i32 6
  %81 = load i32, ptr %80, align 8, !tbaa !34
  %82 = icmp ne i32 %81, 0
  br i1 %82, label %83, label %84

83:                                               ; preds = %78, %75
  store i32 -2, ptr %5, align 4
  store i32 1, ptr %11, align 4
  br label %173

84:                                               ; preds = %78
  %85 = load i32, ptr %8, align 4, !tbaa !45
  %86 = load ptr, ptr %10, align 8, !tbaa !8
  %87 = getelementptr inbounds nuw %struct.DH_PKEY_CTX, ptr %86, i32 0, i32 6
  store i32 %85, ptr %87, align 8, !tbaa !34
  store i32 1, ptr %5, align 4
  store i32 1, ptr %11, align 4
  br label %173

88:                                               ; preds = %4
  store i32 1, ptr %5, align 4
  store i32 1, ptr %11, align 4
  br label %173

89:                                               ; preds = %4
  %90 = load i32, ptr %8, align 4, !tbaa !45
  %91 = icmp eq i32 %90, -2
  br i1 %91, label %92, label %97

92:                                               ; preds = %89
  %93 = load ptr, ptr %10, align 8, !tbaa !8
  %94 = getelementptr inbounds nuw %struct.DH_PKEY_CTX, ptr %93, i32 0, i32 8
  %95 = load i8, ptr %94, align 4, !tbaa !18
  %96 = sext i8 %95 to i32
  store i32 %96, ptr %5, align 4
  store i32 1, ptr %11, align 4
  br label %173

97:                                               ; preds = %89
  %98 = load i32, ptr %8, align 4, !tbaa !45
  %99 = icmp ne i32 %98, 1
  br i1 %99, label %100, label %104

100:                                              ; preds = %97
  %101 = load i32, ptr %8, align 4, !tbaa !45
  %102 = icmp ne i32 %101, 2
  br i1 %102, label %103, label %104

103:                                              ; preds = %100
  store i32 -2, ptr %5, align 4
  store i32 1, ptr %11, align 4
  br label %173

104:                                              ; preds = %100, %97
  %105 = load i32, ptr %8, align 4, !tbaa !45
  %106 = trunc i32 %105 to i8
  %107 = load ptr, ptr %10, align 8, !tbaa !8
  %108 = getelementptr inbounds nuw %struct.DH_PKEY_CTX, ptr %107, i32 0, i32 8
  store i8 %106, ptr %108, align 4, !tbaa !18
  store i32 1, ptr %5, align 4
  store i32 1, ptr %11, align 4
  br label %173

109:                                              ; preds = %4
  %110 = load ptr, ptr %9, align 8, !tbaa !8
  %111 = load ptr, ptr %10, align 8, !tbaa !8
  %112 = getelementptr inbounds nuw %struct.DH_PKEY_CTX, ptr %111, i32 0, i32 10
  store ptr %110, ptr %112, align 8, !tbaa !36
  store i32 1, ptr %5, align 4
  store i32 1, ptr %11, align 4
  br label %173

113:                                              ; preds = %4
  %114 = load ptr, ptr %10, align 8, !tbaa !8
  %115 = getelementptr inbounds nuw %struct.DH_PKEY_CTX, ptr %114, i32 0, i32 10
  %116 = load ptr, ptr %115, align 8, !tbaa !36
  %117 = load ptr, ptr %9, align 8, !tbaa !8
  store ptr %116, ptr %117, align 8, !tbaa !65
  store i32 1, ptr %5, align 4
  store i32 1, ptr %11, align 4
  br label %173

118:                                              ; preds = %4
  %119 = load i32, ptr %8, align 4, !tbaa !45
  %120 = icmp sle i32 %119, 0
  br i1 %120, label %121, label %122

121:                                              ; preds = %118
  store i32 -2, ptr %5, align 4
  store i32 1, ptr %11, align 4
  br label %173

122:                                              ; preds = %118
  %123 = load i32, ptr %8, align 4, !tbaa !45
  %124 = sext i32 %123 to i64
  %125 = load ptr, ptr %10, align 8, !tbaa !8
  %126 = getelementptr inbounds nuw %struct.DH_PKEY_CTX, ptr %125, i32 0, i32 13
  store i64 %124, ptr %126, align 8, !tbaa !39
  store i32 1, ptr %5, align 4
  store i32 1, ptr %11, align 4
  br label %173

127:                                              ; preds = %4
  %128 = load ptr, ptr %10, align 8, !tbaa !8
  %129 = getelementptr inbounds nuw %struct.DH_PKEY_CTX, ptr %128, i32 0, i32 13
  %130 = load i64, ptr %129, align 8, !tbaa !39
  %131 = trunc i64 %130 to i32
  %132 = load ptr, ptr %9, align 8, !tbaa !8
  store i32 %131, ptr %132, align 4, !tbaa !45
  store i32 1, ptr %5, align 4
  store i32 1, ptr %11, align 4
  br label %173

133:                                              ; preds = %4
  %134 = load ptr, ptr %10, align 8, !tbaa !8
  %135 = getelementptr inbounds nuw %struct.DH_PKEY_CTX, ptr %134, i32 0, i32 11
  %136 = load ptr, ptr %135, align 8, !tbaa !37
  call void @CRYPTO_free(ptr noundef %136, ptr noundef @.str, i32 noundef 195)
  %137 = load ptr, ptr %9, align 8, !tbaa !8
  %138 = load ptr, ptr %10, align 8, !tbaa !8
  %139 = getelementptr inbounds nuw %struct.DH_PKEY_CTX, ptr %138, i32 0, i32 11
  store ptr %137, ptr %139, align 8, !tbaa !37
  %140 = load ptr, ptr %9, align 8, !tbaa !8
  %141 = icmp ne ptr %140, null
  br i1 %141, label %142, label %147

142:                                              ; preds = %133
  %143 = load i32, ptr %8, align 4, !tbaa !45
  %144 = sext i32 %143 to i64
  %145 = load ptr, ptr %10, align 8, !tbaa !8
  %146 = getelementptr inbounds nuw %struct.DH_PKEY_CTX, ptr %145, i32 0, i32 12
  store i64 %144, ptr %146, align 8, !tbaa !38
  br label %150

147:                                              ; preds = %133
  %148 = load ptr, ptr %10, align 8, !tbaa !8
  %149 = getelementptr inbounds nuw %struct.DH_PKEY_CTX, ptr %148, i32 0, i32 12
  store i64 0, ptr %149, align 8, !tbaa !38
  br label %150

150:                                              ; preds = %147, %142
  store i32 1, ptr %5, align 4
  store i32 1, ptr %11, align 4
  br label %173

151:                                              ; preds = %4
  %152 = load ptr, ptr %10, align 8, !tbaa !8
  %153 = getelementptr inbounds nuw %struct.DH_PKEY_CTX, ptr %152, i32 0, i32 11
  %154 = load ptr, ptr %153, align 8, !tbaa !37
  %155 = load ptr, ptr %9, align 8, !tbaa !8
  store ptr %154, ptr %155, align 8, !tbaa !51
  %156 = load ptr, ptr %10, align 8, !tbaa !8
  %157 = getelementptr inbounds nuw %struct.DH_PKEY_CTX, ptr %156, i32 0, i32 12
  %158 = load i64, ptr %157, align 8, !tbaa !38
  %159 = trunc i64 %158 to i32
  store i32 %159, ptr %5, align 4
  store i32 1, ptr %11, align 4
  br label %173

160:                                              ; preds = %4
  %161 = load ptr, ptr %10, align 8, !tbaa !8
  %162 = getelementptr inbounds nuw %struct.DH_PKEY_CTX, ptr %161, i32 0, i32 9
  %163 = load ptr, ptr %162, align 8, !tbaa !35
  call void @ASN1_OBJECT_free(ptr noundef %163)
  %164 = load ptr, ptr %9, align 8, !tbaa !8
  %165 = load ptr, ptr %10, align 8, !tbaa !8
  %166 = getelementptr inbounds nuw %struct.DH_PKEY_CTX, ptr %165, i32 0, i32 9
  store ptr %164, ptr %166, align 8, !tbaa !35
  store i32 1, ptr %5, align 4
  store i32 1, ptr %11, align 4
  br label %173

167:                                              ; preds = %4
  %168 = load ptr, ptr %10, align 8, !tbaa !8
  %169 = getelementptr inbounds nuw %struct.DH_PKEY_CTX, ptr %168, i32 0, i32 9
  %170 = load ptr, ptr %169, align 8, !tbaa !35
  %171 = load ptr, ptr %9, align 8, !tbaa !8
  store ptr %170, ptr %171, align 8, !tbaa !66
  store i32 1, ptr %5, align 4
  store i32 1, ptr %11, align 4
  br label %173

172:                                              ; preds = %4
  store i32 -2, ptr %5, align 4
  store i32 1, ptr %11, align 4
  br label %173

173:                                              ; preds = %172, %167, %160, %151, %150, %127, %122, %121, %113, %109, %104, %103, %92, %88, %84, %83, %71, %70, %55, %54, %44, %43, %34, %30, %29, %20, %19
  call void @llvm.lifetime.end.p0(i64 8, ptr %10) #6
  %174 = load i32, ptr %5, align 4
  ret i32 %174
}