; Function Attrs: nounwind uwtable
define internal i32 @pkey_dh_ctrl(ptr noundef readonly captures(none) %0, i32 noundef %1, i32 noundef %2, ptr noundef %3) #1 {
  %5 = getelementptr inbounds nuw i8, ptr %0, i64 152
  %6 = load ptr, ptr %5, align 8, !tbaa !16
  switch i32 %1, label %83 [
    i32 4097, label %7
    i32 4100, label %10
    i32 4112, label %16
    i32 4098, label %18
    i32 4101, label %23
    i32 4099, label %26
    i32 4111, label %32
    i32 2, label %84
    i32 4102, label %38
    i32 4103, label %49
    i32 4104, label %51
    i32 4105, label %54
    i32 4106, label %59
    i32 4107, label %63
    i32 4108, label %71
    i32 4109, label %77
    i32 4110, label %80
  ]

7:                                                ; preds = %4
  %8 = icmp slt i32 %2, 256
  br i1 %8, label %84, label %9

9:                                                ; preds = %7
  store i32 %2, ptr %6, align 8, !tbaa !3
  br label %84

10:                                               ; preds = %4
  %11 = getelementptr inbounds nuw i8, ptr %6, i64 8
  %12 = load i32, ptr %11, align 8, !tbaa !28
  %13 = icmp eq i32 %12, 0
  br i1 %13, label %84, label %14

14:                                               ; preds = %10
  %15 = getelementptr inbounds nuw i8, ptr %6, i64 12
  store i32 %2, ptr %15, align 4, !tbaa !13
  br label %84

16:                                               ; preds = %4
  %17 = getelementptr inbounds nuw i8, ptr %6, i64 16
  store i32 %2, ptr %17, align 8, !tbaa !29
  br label %84

18:                                               ; preds = %4
  %19 = getelementptr inbounds nuw i8, ptr %6, i64 8
  %20 = load i32, ptr %19, align 8, !tbaa !28
  %.not64 = icmp eq i32 %20, 0
  br i1 %.not64, label %21, label %84

21:                                               ; preds = %18
  %22 = getelementptr inbounds nuw i8, ptr %6, i64 4
  store i32 %2, ptr %22, align 4, !tbaa !14
  br label %84

23:                                               ; preds = %4
  %or.cond = icmp ugt i32 %2, 2
  br i1 %or.cond, label %84, label %24

24:                                               ; preds = %23
  %25 = getelementptr inbounds nuw i8, ptr %6, i64 8
  store i32 %2, ptr %25, align 8, !tbaa !28
  br label %84

26:                                               ; preds = %4
  %27 = add i32 %2, -4
  %or.cond3 = icmp ult i32 %27, -3
  br i1 %or.cond3, label %84, label %28

28:                                               ; preds = %26
  %29 = getelementptr inbounds nuw i8, ptr %6, i64 32
  %30 = load i32, ptr %29, align 8, !tbaa !31
  %.not63 = icmp eq i32 %30, 0
  br i1 %.not63, label %31, label %84

31:                                               ; preds = %28
  store i32 %2, ptr %29, align 8, !tbaa !31
  br label %84

32:                                               ; preds = %4
  %33 = icmp slt i32 %2, 1
  br i1 %33, label %84, label %34

34:                                               ; preds = %32
  %35 = getelementptr inbounds nuw i8, ptr %6, i64 32
  %36 = load i32, ptr %35, align 8, !tbaa !31
  %.not62 = icmp eq i32 %36, 0
  br i1 %.not62, label %37, label %84

37:                                               ; preds = %34
  store i32 %2, ptr %35, align 8, !tbaa !31
  br label %84

38:                                               ; preds = %4
  %39 = icmp eq i32 %2, -2
  br i1 %39, label %40, label %44

40:                                               ; preds = %38
  %41 = getelementptr inbounds nuw i8, ptr %6, i64 44
  %42 = load i8, ptr %41, align 4, !tbaa !15
  %43 = sext i8 %42 to i32
  br label %84

44:                                               ; preds = %38
  %45 = add i32 %2, -3
  %or.cond5 = icmp ult i32 %45, -2
  br i1 %or.cond5, label %84, label %46

46:                                               ; preds = %44
  %47 = trunc nuw i32 %2 to i8
  %48 = getelementptr inbounds nuw i8, ptr %6, i64 44
  store i8 %47, ptr %48, align 4, !tbaa !15
  br label %84

49:                                               ; preds = %4
  %50 = getelementptr inbounds nuw i8, ptr %6, i64 56
  store ptr %3, ptr %50, align 8, !tbaa !33
  br label %84

51:                                               ; preds = %4
  %52 = getelementptr inbounds nuw i8, ptr %6, i64 56
  %53 = load ptr, ptr %52, align 8, !tbaa !33
  store ptr %53, ptr %3, align 8, !tbaa !52
  br label %84

54:                                               ; preds = %4
  %55 = icmp slt i32 %2, 1
  br i1 %55, label %84, label %56

56:                                               ; preds = %54
  %57 = zext nneg i32 %2 to i64
  %58 = getelementptr inbounds nuw i8, ptr %6, i64 80
  store i64 %57, ptr %58, align 8, !tbaa !36
  br label %84

59:                                               ; preds = %4
  %60 = getelementptr inbounds nuw i8, ptr %6, i64 80
  %61 = load i64, ptr %60, align 8, !tbaa !36
  %62 = trunc i64 %61 to i32
  store i32 %62, ptr %3, align 4, !tbaa !53
  br label %84

63:                                               ; preds = %4
  %64 = getelementptr inbounds nuw i8, ptr %6, i64 64
  %65 = load ptr, ptr %64, align 8, !tbaa !34
  tail call void @CRYPTO_free(ptr noundef %65, ptr noundef nonnull @.str, i32 noundef 195) #6
  store ptr %3, ptr %64, align 8, !tbaa !34
  %.not = icmp eq ptr %3, null
  br i1 %.not, label %69, label %66

66:                                               ; preds = %63
  %67 = sext i32 %2 to i64
  %68 = getelementptr inbounds nuw i8, ptr %6, i64 72
  store i64 %67, ptr %68, align 8, !tbaa !35
  br label %84

69:                                               ; preds = %63
  %70 = getelementptr inbounds nuw i8, ptr %6, i64 72
  store i64 0, ptr %70, align 8, !tbaa !35
  br label %84

71:                                               ; preds = %4
  %72 = getelementptr inbounds nuw i8, ptr %6, i64 64
  %73 = load ptr, ptr %72, align 8, !tbaa !34
  store ptr %73, ptr %3, align 8, !tbaa !54
  %74 = getelementptr inbounds nuw i8, ptr %6, i64 72
  %75 = load i64, ptr %74, align 8, !tbaa !35
  %76 = trunc i64 %75 to i32
  br label %84

77:                                               ; preds = %4
  %78 = getelementptr inbounds nuw i8, ptr %6, i64 48
  %79 = load ptr, ptr %78, align 8, !tbaa !32
  tail call void @ASN1_OBJECT_free(ptr noundef %79) #6
  store ptr %3, ptr %78, align 8, !tbaa !32
  br label %84

80:                                               ; preds = %4
  %81 = getelementptr inbounds nuw i8, ptr %6, i64 48
  %82 = load ptr, ptr %81, align 8, !tbaa !32
  store ptr %82, ptr %3, align 8, !tbaa !55
  br label %84

83:                                               ; preds = %4
  br label %84

84:                                               ; preds = %66, %69, %54, %44, %4, %32, %34, %26, %28, %23, %18, %10, %7, %83, %80, %77, %71, %59, %56, %51, %49, %46, %40, %37, %31, %24, %21, %16, %14, %9
  %.0 = phi i32 [ -2, %83 ], [ 1, %80 ], [ 1, %77 ], [ %76, %71 ], [ 1, %59 ], [ 1, %56 ], [ 1, %51 ], [ 1, %49 ], [ %43, %40 ], [ 1, %46 ], [ 1, %37 ], [ 1, %31 ], [ 1, %24 ], [ 1, %21 ], [ 1, %16 ], [ 1, %14 ], [ 1, %9 ], [ -2, %7 ], [ -2, %10 ], [ -2, %18 ], [ -2, %23 ], [ -2, %28 ], [ -2, %26 ], [ -2, %34 ], [ -2, %32 ], [ 1, %4 ], [ -2, %44 ], [ -2, %54 ], [ 1, %69 ], [ 1, %66 ]
  ret i32 %.0
}